target datalayout = "e-m:e-p270:32:32-p271:32:32-p272:64:64-i64:64-i128:128-f80:128-n8:16:32:64-S128"
target triple = "x86_64-pc-linux-gnu"

%struct.Aig_Man_t_ = type { ptr, ptr, ptr, ptr, ptr, ptr, ptr, %struct.Aig_Obj_t_, i32, i32, i32, i32, i32, i32, [7 x i32], i32, ptr, i32, ptr, i32, ptr, i32, i32, i32, ptr, i32, i32, i32, i32, i32, ptr, ptr, i32, ptr, ptr, i32, ptr, ptr, i32, i32, i32, ptr, ptr, ptr, ptr, ptr, ptr, ptr, ptr, ptr, ptr, ptr, ptr, ptr, ptr, i32, ptr, ptr, ptr, ptr, i32, i64, i64, i64, ptr, ptr }
%struct.Aig_Obj_t_ = type { %union.anon, ptr, ptr, i64, i32, i32, %union.anon.0 }
%union.anon = type { ptr }
%union.anon.0 = type { ptr }
%struct.Vec_Ptr_t_ = type { i32, i32, ptr }

; Function Attrs: inlinehint nounwind uwtable
define internal ptr @Vec_PtrEntry(ptr noundef %0, i32 noundef %1) #4 {
  %3 = alloca ptr, align 8
  %4 = alloca i32, align 4
  store ptr %0, ptr %3, align 8, !tbaa !34
  store i32 %1, ptr %4, align 4, !tbaa !3
  %5 = load ptr, ptr %3, align 8, !tbaa !34
  %6 = getelementptr inbounds nuw %struct.Vec_Ptr_t_, ptr %5, i32 0, i32 2
  %7 = load ptr, ptr %6, align 8, !tbaa !38
  %8 = load i32, ptr %4, align 4, !tbaa !3
  %9 = sext i32 %8 to i64
  %10 = getelementptr inbounds ptr, ptr %7, i64 %9
  %11 = load ptr, ptr %10, align 8, !tbaa !49
  ret ptr %11
}

; Function Attrs: inlinehint nounwind uwtable
define internal i32 @Vec_PtrSize(ptr noundef %0) #4 {
  %2 = alloca ptr, align 8
  store ptr %0, ptr %2, align 8, !tbaa !34
  %3 = load ptr, ptr %2, align 8, !tbaa !34
  %4 = getelementptr inbounds nuw %struct.Vec_Ptr_t_, ptr %3, i32 0, i32 1
  %5 = load i32, ptr %4, align 4, !tbaa !35
  ret i32 %5
}

; Function Attrs: inlinehint nounwind uwtable
define internal ptr @Aig_ManConst1(ptr noundef %0) #4 {
  %2 = alloca ptr, align 8
  store ptr %0, ptr %2, align 8, !tbaa !7
  %3 = load ptr, ptr %2, align 8, !tbaa !7
  %4 = getelementptr inbounds nuw %struct.Aig_Man_t_, ptr %3, i32 0, i32 6
  %5 = load ptr, ptr %4, align 8, !tbaa !31
  ret ptr %5
}

; Function Attrs: inlinehint nounwind uwtable
define internal ptr @Abc_UtilStrsav(ptr noundef %0) #4 {
  %2 = alloca ptr, align 8
  store ptr %0, ptr %2, align 8, !tbaa !48
  %3 = load ptr, ptr %2, align 8, !tbaa !48
  %4 = icmp ne ptr %3, null
  br i1 %4, label %5, label %13

5:                                                ; preds = %1
  %6 = load ptr, ptr %2, align 8, !tbaa !48
  %7 = call i64 @strlen(ptr noundef %6) #12
  %8 = add i64 %7, 1
  %9 = mul i64 1, %8
  %10 = call noalias ptr @malloc(i64 noundef %9) #11
  %11 = load ptr, ptr %2, align 8, !tbaa !48
  %12 = call ptr @strcpy(ptr noundef %10, ptr noundef %11) #10
  br label %14

13:                                               ; preds = %1
  br label %14

14:                                               ; preds = %13, %5
  %15 = phi ptr [ %12, %5 ], [ null, %13 ]
  ret ptr %15
}

; Function Attrs: inlinehint nounwind uwtable
define internal i32 @Aig_ManObjNumMax(ptr noundef %0) #4 {
  %2 = alloca ptr, align 8
  store ptr %0, ptr %2, align 8, !tbaa !7
  %3 = load ptr, ptr %2, align 8, !tbaa !7
  %4 = getelementptr inbounds nuw %struct.Aig_Man_t_, ptr %3, i32 0, i32 4
  %5 = load ptr, ptr %4, align 8, !tbaa !26
  %6 = call i32 @Vec_PtrSize(ptr noundef %5)
  ret i32 %6
}

; Function Attrs: nounwind uwtable
define ptr @Aig_ManStartFrom(ptr noundef %0) #0 {
  %2 = alloca ptr, align 8
  %3 = alloca ptr, align 8
  %4 = alloca ptr, align 8
  %5 = alloca ptr, align 8
  %6 = alloca i32, align 4
  store ptr %0, ptr %2, align 8, !tbaa !7
  call void @llvm.lifetime.start.p0(i64 8, ptr %3) #10
  call void @llvm.lifetime.start.p0(i64 8, ptr %4) #10
  call void @llvm.lifetime.start.p0(i64 8, ptr %5) #10
  call void @llvm.lifetime.start.p0(i64 4, ptr %6) #10
  %7 = load ptr, ptr %2, align 8, !tbaa !7
  %8 = call i32 @Aig_ManObjNumMax(ptr noundef %7)
  %9 = call ptr @Aig_ManStart(i32 noundef %8)
  store ptr %9, ptr %3, align 8, !tbaa !7
  %10 = load ptr, ptr %2, align 8, !tbaa !7
  %11 = getelementptr inbounds nuw %struct.Aig_Man_t_, ptr %10, i32 0, i32 0
  %12 = load ptr, ptr %11, align 8, !tbaa !44
  %13 = call ptr @Abc_UtilStrsav(ptr noundef %12)
  %14 = load ptr, ptr %3, align 8, !tbaa !7
  %15 = getelementptr inbounds nuw %struct.Aig_Man_t_, ptr %14, i32 0, i32 0
  store ptr %13, ptr %15, align 8, !tbaa !44
  %16 = load ptr, ptr %2, align 8, !tbaa !7
  %17 = getelementptr inbounds nuw %struct.Aig_Man_t_, ptr %16, i32 0, i32 1
  %18 = load ptr, ptr %17, align 8, !tbaa !45
  %19 = call ptr @Abc_UtilStrsav(ptr noundef %18)
  %20 = load ptr, ptr %3, align 8, !tbaa !7
  %21 = getelementptr inbounds nuw %struct.Aig_Man_t_, ptr %20, i32 0, i32 1
  store ptr %19, ptr %21, align 8, !tbaa !45
  %22 = load ptr, ptr %3, align 8, !tbaa !7
  %23 = call ptr @Aig_ManConst1(ptr noundef %22)
  %24 = load ptr, ptr %2, align 8, !tbaa !7
  %25 = call ptr @Aig_ManConst1(ptr noundef %24)
  %26 = getelementptr inbounds nuw %struct.Aig_Obj_t_, ptr %25, i32 0, i32 6
  store ptr %23, ptr %26, align 8, !tbaa !46
  store i32 0, ptr %6, align 4, !tbaa !3
  br label %27

27:                                               ; preds = %62, %1
  %28 = load i32, ptr %6, align 4, !tbaa !3
  %29 = load ptr, ptr %2, align 8, !tbaa !7
  %30 = getelementptr inbounds nuw %struct.Aig_Man_t_, ptr %29, i32 0, i32 2
  %31 = load ptr, ptr %30, align 8, !tbaa !24
  %32 = call i32 @Vec_PtrSize(ptr noundef %31)
  %33 = icmp slt i32 %28, %32
  br i1 %33, label %34, label %40

34:                                               ; preds = %27
  %35 = load ptr, ptr %2, align 8, !tbaa !7
  %36 = getelementptr inbounds nuw %struct.Aig_Man_t_, ptr %35, i32 0, i32 2
  %37 = load ptr, ptr %36, align 8, !tbaa !24
  %38 = load i32, ptr %6, align 4, !tbaa !3
  %39 = call ptr @Vec_PtrEntry(ptr noundef %37, i32 noundef %38)
  store ptr %39, ptr %4, align 8, !tbaa !39
  br label %40

40:                                               ; preds = %34, %27
  %41 = phi i1 [ false, %27 ], [ true, %34 ]
  br i1 %41, label %42, label %65

42:                                               ; preds = %40
  %43 = load ptr, ptr %3, align 8, !tbaa !7
  %44 = call ptr @Aig_ObjCreateCi(ptr noundef %43)
  store ptr %44, ptr %5, align 8, !tbaa !39
  %45 = load ptr, ptr %4, align 8, !tbaa !39
  %46 = getelementptr inbounds nuw %struct.Aig_Obj_t_, ptr %45, i32 0, i32 3
  %47 = load i64, ptr %46, align 8
  %48 = lshr i64 %47, 32
  %49 = and i64 %48, 16777215
  %50 = trunc i64 %49 to i32
  %51 = load ptr, ptr %5, align 8, !tbaa !39
  %52 = getelementptr inbounds nuw %struct.Aig_Obj_t_, ptr %51, i32 0, i32 3
  %53 = zext i32 %50 to i64
  %54 = load i64, ptr %52, align 8
  %55 = and i64 %53, 16777215
  %56 = shl i64 %55, 32
  %57 = and i64 %54, -72057589742960641
  %58 = or i64 %57, %56
  store i64 %58, ptr %52, align 8
  %59 = load ptr, ptr %5, align 8, !tbaa !39
  %60 = load ptr, ptr %4, align 8, !tbaa !39
  %61 = getelementptr inbounds nuw %struct.Aig_Obj_t_, ptr %60, i32 0, i32 6
  store ptr %59, ptr %61, align 8, !tbaa !46
  br label %62

62:                                               ; preds = %42
  %63 = load i32, ptr %6, align 4, !tbaa !3
  %64 = add nsw i32 %63, 1
  store i32 %64, ptr %6, align 4, !tbaa !3
  br label %27, !llvm.loop !47

65:                                               ; preds = %40
  %66 = load ptr, ptr %3, align 8, !tbaa !7
  call void @llvm.lifetime.end.p0(i64 4, ptr %6) #10
  call void @llvm.lifetime.end.p0(i64 8, ptr %5) #10
  call void @llvm.lifetime.end.p0(i64 8, ptr %4) #10
  call void @llvm.lifetime.end.p0(i64 8, ptr %3) #10
  ret ptr %66
}