; Function Attrs: nounwind uwtable
define noundef ptr @Aig_ManStartFrom(ptr noundef readonly captures(none) %0) local_unnamed_addr #0 {
  %2 = getelementptr i8, ptr %0, i64 32
  %.val17 = load ptr, ptr %2, align 8, !tbaa !27
  %3 = getelementptr i8, ptr %.val17, i64 4
  %.val17.val = load i32, ptr %3, align 4, !tbaa !21
  %4 = tail call ptr @Aig_ManStart(i32 noundef %.val17.val)
  %5 = load ptr, ptr %0, align 8, !tbaa !41
  %.not.i = icmp eq ptr %5, null
  br i1 %.not.i, label %Abc_UtilStrsav.exit, label %6

6:                                                ; preds = %1
  %7 = tail call i64 @strlen(ptr noundef nonnull readonly dereferenceable(1) %5) #21
  %8 = add i64 %7, 1
  %9 = tail call noalias ptr @malloc(i64 noundef %8) #18
  %10 = tail call ptr @strcpy(ptr noundef nonnull dereferenceable(1) %9, ptr noundef nonnull readonly dereferenceable(1) %5) #19
  br label %Abc_UtilStrsav.exit

Abc_UtilStrsav.exit:                              ; preds = %1, %6
  %11 = phi ptr [ %9, %6 ], [ null, %1 ]
  store ptr %11, ptr %4, align 8, !tbaa !41
  %12 = getelementptr inbounds nuw i8, ptr %0, i64 8
  %13 = load ptr, ptr %12, align 8, !tbaa !42
  %.not.i21 = icmp eq ptr %13, null
  br i1 %.not.i21, label %Abc_UtilStrsav.exit22, label %14

14:                                               ; preds = %Abc_UtilStrsav.exit
  %15 = tail call i64 @strlen(ptr noundef nonnull readonly dereferenceable(1) %13) #21
  %16 = add i64 %15, 1
  %17 = tail call noalias ptr @malloc(i64 noundef %16) #18
  %18 = tail call ptr @strcpy(ptr noundef nonnull dereferenceable(1) %17, ptr noundef nonnull readonly dereferenceable(1) %13) #19
  br label %Abc_UtilStrsav.exit22

Abc_UtilStrsav.exit22:                            ; preds = %Abc_UtilStrsav.exit, %14
  %19 = phi ptr [ %17, %14 ], [ null, %Abc_UtilStrsav.exit ]
  %20 = getelementptr inbounds nuw i8, ptr %4, i64 8
  store ptr %19, ptr %20, align 8, !tbaa !42
  %21 = getelementptr i8, ptr %4, i64 48
  %.val18 = load ptr, ptr %21, align 8, !tbaa !34
  %22 = getelementptr i8, ptr %0, i64 48
  %.val19 = load ptr, ptr %22, align 8, !tbaa !34
  %23 = getelementptr inbounds nuw i8, ptr %.val19, i64 40
  store ptr %.val18, ptr %23, align 8, !tbaa !43
  %24 = getelementptr inbounds nuw i8, ptr %0, i64 16
  %25 = load ptr, ptr %24, align 8, !tbaa !25
  %26 = getelementptr i8, ptr %25, i64 4
  %.val23 = load i32, ptr %26, align 4, !tbaa !21
  %27 = icmp sgt i32 %.val23, 0
  br i1 %27, label %.lr.ph, label %.critedge

.lr.ph:                                           ; preds = %Abc_UtilStrsav.exit22, %.lr.ph
  %indvars.iv = phi i64 [ %indvars.iv.next, %.lr.ph ], [ 0, %Abc_UtilStrsav.exit22 ]
  %28 = phi ptr [ %41, %.lr.ph ], [ %25, %Abc_UtilStrsav.exit22 ]
  %29 = getelementptr i8, ptr %28, i64 8
  %.val20 = load ptr, ptr %29, align 8, !tbaa !24
  %30 = getelementptr inbounds nuw ptr, ptr %.val20, i64 %indvars.iv
  %31 = load ptr, ptr %30, align 8, !tbaa !33
  %32 = tail call ptr @Aig_ObjCreateCi(ptr noundef nonnull %4) #19
  %33 = getelementptr inbounds nuw i8, ptr %31, i64 24
  %34 = load i64, ptr %33, align 8
  %35 = and i64 %34, 72057589742960640
  %36 = getelementptr inbounds nuw i8, ptr %32, i64 24
  %37 = load i64, ptr %36, align 8
  %38 = and i64 %37, -72057589742960641
  %39 = or disjoint i64 %38, %35
  store i64 %39, ptr %36, align 8
  %40 = getelementptr inbounds nuw i8, ptr %31, i64 40
  store ptr %32, ptr %40, align 8, !tbaa !43
  %indvars.iv.next = add nuw nsw i64 %indvars.iv, 1
  %41 = load ptr, ptr %24, align 8, !tbaa !25
  %42 = getelementptr i8, ptr %41, i64 4
  %.val = load i32, ptr %42, align 4, !tbaa !21
  %43 = sext i32 %.val to i64
  %44 = icmp slt i64 %indvars.iv.next, %43
  br i1 %44, label %.lr.ph, label %.critedge, !llvm.loop !44

.critedge:                                        ; preds = %.lr.ph, %Abc_UtilStrsav.exit22
  ret ptr %4
}